; Function Attrs: mustprogress null_pointer_is_valid sspstrong uwtable
define internal void @"_ZN9QtPrivate18QFunctorSlotObjectIZN19WiresharkMainWindow22connectHelpMenuActionsEvE3$_0Li0ENS_4ListIJEEEvE4implEiPNS_15QSlotObjectBaseEP7QObjectPPvPb"(i32 noundef %0, ptr noundef %1, ptr readnone captures(none) %2, ptr readnone captures(none) %3, ptr readnone captures(none) %4) #0 align 2 personality ptr @__gxx_personality_v0 {
  switch i32 %0, label %18 [
    i32 0, label %6
    i32 1, label %9
  ]

6:                                                ; preds = %5
  %7 = icmp eq ptr %1, null
  br i1 %7, label %18, label %8

8:                                                ; preds = %6
  tail call void @_ZdlPvm(ptr noundef nonnull %1, i64 noundef 24) #26
  br label %18

9:                                                ; preds = %5
  %10 = getelementptr inbounds nuw i8, ptr %1, i64 16
  %.val = load ptr, ptr %10, align 8
  %11 = tail call noalias noundef dereferenceable_or_null(96) ptr @_Znwm(i64 noundef 96) #28
  invoke void @_ZN11AboutDialogC1EP7QWidget(ptr noundef align 8 dereferenceable_or_null(96) %11, ptr noundef %.val)
          to label %12 unwind label %15

12:                                               ; preds = %9
  %13 = tail call noundef zeroext i1 @_ZNK7QWidget11isMinimizedEv(ptr noundef align 8 dereferenceable_or_null(40) %11)
  br i1 %13, label %14, label %17

14:                                               ; preds = %12
  tail call void @_ZN7QWidget10showNormalEv(ptr noundef align 8 dereferenceable_or_null(40) %11)
  br label %"_ZN9QtPrivate7FunctorIZN19WiresharkMainWindow22connectHelpMenuActionsEvE3$_0Li0EE4callINS_4ListIJEEEvEEvRS2_PvPS8_.exit"

15:                                               ; preds = %9
  %16 = landingpad { ptr, i32 }
          cleanup
  tail call void @_ZdlPvm(ptr noundef %11, i64 noundef 96) #26
  resume { ptr, i32 } %16

17:                                               ; preds = %12
  tail call void @_ZN7QWidget4showEv(ptr noundef align 8 dereferenceable_or_null(40) %11)
  br label %"_ZN9QtPrivate7FunctorIZN19WiresharkMainWindow22connectHelpMenuActionsEvE3$_0Li0EE4callINS_4ListIJEEEvEEvRS2_PvPS8_.exit"

"_ZN9QtPrivate7FunctorIZN19WiresharkMainWindow22connectHelpMenuActionsEvE3$_0Li0EE4callINS_4ListIJEEEvEEvRS2_PvPS8_.exit": ; preds = %14, %17
  tail call void @_ZN7QWidget5raiseEv(ptr noundef align 8 dereferenceable_or_null(40) %11)
  tail call void @_ZN7QWidget14activateWindowEv(ptr noundef align 8 dereferenceable_or_null(40) %11)
  br label %18

18:                                               ; preds = %6, %8, %"_ZN9QtPrivate7FunctorIZN19WiresharkMainWindow22connectHelpMenuActionsEvE3$_0Li0EE4callINS_4ListIJEEEvEEvRS2_PvPS8_.exit", %5
  ret void
}